target datalayout = "e-m:e-p270:32:32-p271:32:32-p272:64:64-i64:64-i128:128-f80:128-n8:16:32:64-S128"
target triple = "x86_64-pc-linux-gnu"

%struct._object = type { %union.anon, ptr }
%union.anon = type { i64 }
%struct.anon = type { i32, i32 }

@.str.68 = private unnamed_addr constant [8 x i8] c"getattr\00", align 1

; Function Attrs: alwaysinline nounwind uwtable
define internal void @Py_INCREF(ptr noundef %0) #3 {
  %2 = alloca ptr, align 8
  %3 = alloca i32, align 4
  %4 = alloca i32, align 4
  store ptr %0, ptr %2, align 8, !tbaa !4
  call void @llvm.lifetime.start.p0(i64 4, ptr %3) #9
  %5 = load ptr, ptr %2, align 8, !tbaa !4
  %6 = getelementptr inbounds nuw %struct._object, ptr %5, i32 0, i32 0
  %7 = getelementptr inbounds nuw %struct.anon, ptr %6, i32 0, i32 0
  %8 = load i32, ptr %7, align 8, !tbaa !74
  store i32 %8, ptr %3, align 4, !tbaa !38
  %9 = load i32, ptr %3, align 4, !tbaa !38
  %10 = icmp slt i32 %9, 0
  br i1 %10, label %11, label %12

11:                                               ; preds = %1
  store i32 1, ptr %4, align 4
  br label %18

12:                                               ; preds = %1
  %13 = load i32, ptr %3, align 4, !tbaa !38
  %14 = add i32 %13, 1
  %15 = load ptr, ptr %2, align 8, !tbaa !4
  %16 = getelementptr inbounds nuw %struct._object, ptr %15, i32 0, i32 0
  %17 = getelementptr inbounds nuw %struct.anon, ptr %16, i32 0, i32 0
  store i32 %14, ptr %17, align 8, !tbaa !74
  store i32 0, ptr %4, align 4
  br label %18

18:                                               ; preds = %12, %11
  call void @llvm.lifetime.end.p0(i64 4, ptr %3) #9
  %19 = load i32, ptr %4, align 4
  switch i32 %19, label %21 [
    i32 0, label %20
    i32 1, label %20
  ]

20:                                               ; preds = %18, %18
  ret void

21:                                               ; preds = %18
  unreachable
}

; Function Attrs: inlinehint nounwind uwtable
define internal ptr @_Py_NewRef(ptr noundef %0) #4 {
  %2 = alloca ptr, align 8
  store ptr %0, ptr %2, align 8, !tbaa !4
  %3 = load ptr, ptr %2, align 8, !tbaa !4
  call void @Py_INCREF(ptr noundef %3)
  %4 = load ptr, ptr %2, align 8, !tbaa !4
  ret ptr %4
}

; Function Attrs: nounwind uwtable
define internal ptr @builtin_getattr(ptr noundef %0, ptr noundef %1, i64 noundef %2) #0 {
  %4 = alloca ptr, align 8
  %5 = alloca ptr, align 8
  %6 = alloca ptr, align 8
  %7 = alloca i64, align 8
  %8 = alloca ptr, align 8
  %9 = alloca ptr, align 8
  %10 = alloca ptr, align 8
  %11 = alloca i32, align 4
  %12 = alloca ptr, align 8
  store ptr %0, ptr %5, align 8, !tbaa !4
  store ptr %1, ptr %6, align 8, !tbaa !44
  store i64 %2, ptr %7, align 8, !tbaa !40
  call void @llvm.lifetime.start.p0(i64 8, ptr %8) #9
  call void @llvm.lifetime.start.p0(i64 8, ptr %9) #9
  call void @llvm.lifetime.start.p0(i64 8, ptr %10) #9
  %13 = load i64, ptr %7, align 8, !tbaa !40
  %14 = icmp sle i64 2, %13
  br i1 %14, label %15, label %18

15:                                               ; preds = %3
  %16 = load i64, ptr %7, align 8, !tbaa !40
  %17 = icmp sle i64 %16, 3
  br i1 %17, label %23, label %18

18:                                               ; preds = %15, %3
  %19 = load i64, ptr %7, align 8, !tbaa !40
  %20 = call i32 @_PyArg_CheckPositional(ptr noundef @.str.68, i64 noundef %19, i64 noundef 2, i64 noundef 3)
  %21 = icmp ne i32 %20, 0
  br i1 %21, label %23, label %22

22:                                               ; preds = %18
  store ptr null, ptr %4, align 8
  store i32 1, ptr %11, align 4
  br label %50

23:                                               ; preds = %18, %15
  %24 = load ptr, ptr %6, align 8, !tbaa !44
  %25 = getelementptr ptr, ptr %24, i64 0
  %26 = load ptr, ptr %25, align 8, !tbaa !4
  store ptr %26, ptr %8, align 8, !tbaa !4
  %27 = load ptr, ptr %6, align 8, !tbaa !44
  %28 = getelementptr ptr, ptr %27, i64 1
  %29 = load ptr, ptr %28, align 8, !tbaa !4
  store ptr %29, ptr %9, align 8, !tbaa !4
  %30 = load i64, ptr %7, align 8, !tbaa !40
  %31 = icmp sgt i64 %30, 2
  br i1 %31, label %32, label %44

32:                                               ; preds = %23
  %33 = load ptr, ptr %8, align 8, !tbaa !4
  %34 = load ptr, ptr %9, align 8, !tbaa !4
  %35 = call i32 @PyObject_GetOptionalAttr(ptr noundef %33, ptr noundef %34, ptr noundef %10)
  %36 = icmp eq i32 %35, 0
  br i1 %36, label %37, label %43

37:                                               ; preds = %32
  call void @llvm.lifetime.start.p0(i64 8, ptr %12) #9
  %38 = load ptr, ptr %6, align 8, !tbaa !44
  %39 = getelementptr ptr, ptr %38, i64 2
  %40 = load ptr, ptr %39, align 8, !tbaa !4
  store ptr %40, ptr %12, align 8, !tbaa !4
  %41 = load ptr, ptr %12, align 8, !tbaa !4
  %42 = call ptr @_Py_NewRef(ptr noundef %41)
  store ptr %42, ptr %4, align 8
  store i32 1, ptr %11, align 4
  call void @llvm.lifetime.end.p0(i64 8, ptr %12) #9
  br label %50

43:                                               ; preds = %32
  br label %48

44:                                               ; preds = %23
  %45 = load ptr, ptr %8, align 8, !tbaa !4
  %46 = load ptr, ptr %9, align 8, !tbaa !4
  %47 = call ptr @PyObject_GetAttr(ptr noundef %45, ptr noundef %46)
  store ptr %47, ptr %10, align 8, !tbaa !4
  br label %48

48:                                               ; preds = %44, %43
  %49 = load ptr, ptr %10, align 8, !tbaa !4
  store ptr %49, ptr %4, align 8
  store i32 1, ptr %11, align 4
  br label %50

50:                                               ; preds = %48, %37, %22
  call void @llvm.lifetime.end.p0(i64 8, ptr %10) #9
  call void @llvm.lifetime.end.p0(i64 8, ptr %9) #9
  call void @llvm.lifetime.end.p0(i64 8, ptr %8) #9
  %51 = load ptr, ptr %4, align 8
  ret ptr %51
}