; Function Attrs: nounwind uwtable
define internal ptr @builtin_getattr(ptr readnone captures(none) %0, ptr noundef readonly captures(none) %1, i64 noundef %2) #0 {
  %4 = alloca ptr, align 8
  call void @llvm.lifetime.start.p0(i64 8, ptr nonnull %4) #9
  %5 = and i64 %2, -2
  %or.cond = icmp eq i64 %5, 2
  br i1 %or.cond, label %8, label %6

6:                                                ; preds = %3
  %7 = tail call i32 @_PyArg_CheckPositional(ptr noundef nonnull @.str.68, i64 noundef %2, i64 noundef 2, i64 noundef 3) #9
  %.not = icmp eq i32 %7, 0
  br i1 %.not, label %_Py_NewRef.exit, label %8

8:                                                ; preds = %3, %6
  %9 = load ptr, ptr %1, align 8, !tbaa !39
  %10 = getelementptr i8, ptr %1, i64 8
  %11 = load ptr, ptr %10, align 8, !tbaa !39
  %12 = icmp sgt i64 %2, 2
  br i1 %12, label %13, label %23

13:                                               ; preds = %8
  %14 = call i32 @PyObject_GetOptionalAttr(ptr noundef %9, ptr noundef %11, ptr noundef nonnull %4) #9
  %15 = icmp eq i32 %14, 0
  br i1 %15, label %16, label %._crit_edge

._crit_edge:                                      ; preds = %13
  %.pre = load ptr, ptr %4, align 8, !tbaa !39
  br label %_Py_NewRef.exit

16:                                               ; preds = %13
  %17 = getelementptr i8, ptr %1, i64 16
  %18 = load ptr, ptr %17, align 8, !tbaa !39
  %19 = load i32, ptr %18, align 8, !tbaa !33
  %20 = icmp slt i32 %19, 0
  br i1 %20, label %_Py_NewRef.exit, label %21

21:                                               ; preds = %16
  %22 = add nuw i32 %19, 1
  store i32 %22, ptr %18, align 8, !tbaa !33
  br label %_Py_NewRef.exit

23:                                               ; preds = %8
  %24 = tail call ptr @PyObject_GetAttr(ptr noundef %9, ptr noundef %11) #9
  br label %_Py_NewRef.exit

_Py_NewRef.exit:                                  ; preds = %23, %._crit_edge, %21, %16, %6
  %.0 = phi ptr [ null, %6 ], [ %18, %16 ], [ %18, %21 ], [ %.pre, %._crit_edge ], [ %24, %23 ]
  call void @llvm.lifetime.end.p0(i64 8, ptr nonnull %4) #9
  ret ptr %.0
}